(dp0
S'Marek'
p1
(i__main__
User
p2
(dp3
S'status'
p4
S'Niepodlaczony'
p5
sS'haslo'
p6
S'123'
p7
sS'opis'
p8
S'Dzisiaj Nowy York'
p9
sS'stan'
p10
S'off'
p11
sS'login'
p12
g1
sS'znajomi'
p13
c__builtin__
set
p14
((lp15
tp16
Rp17
sS'wiadomosci'
p18
S'Uzytkownik Mateusz napisal: hihooo\n'
p19
sbsS'Arek'
p20
(i__main__
User
p21
(dp22
g4
S'Niepodlaczony'
p23
sg6
S'123'
p24
sg8
S'Czesc jestem Arek'
p25
sg10
S'off'
p26
sg12
g20
sg13
g14
((lp27
tp28
Rp29
sg18
S'Uzytkownik Jarek napisal: gkfdlgk\nUzytkownik Jarek napisal: lfjfj\n'
p30
sbsS'Ania'
p31
(i__main__
User
p32
(dp33
g4
S'Dostepny'
p34
sg6
S'an'
p35
sg8
S'hehe'
p36
sg10
S'on'
p37
sg12
g31
sg13
g14
((lp38
tp39
Rp40
sg18
S''
p41
sbsS'Mateusz'
p42
(i__main__
User
p43
(dp44
g4
S'Niewidoczny'
p45
sg6
S'456'
p46
sg8
S'Zakupy...'
p47
sg10
g37
sg12
g42
sg13
g14
((lp48
S'Monika'
p49
aS'Marek'
p50
aS'Ania'
p51
atp52
Rp53
sg18
g41
sbsS'Jarek'
p54
(i__main__
User
p55
(dp56
g4
S'Zaraz wracam'
p57
sg6
S'123'
p58
sg8
S'Dzien dobry'
p59
sg10
S'on'
p60
sg12
g54
sg13
g14
((lp61
S'Arek'
p62
atp63
Rp64
sg18
g41
sbsS'Sandra'
p65
(i__main__
User
p66
(dp67
g4
S'Niepodlaczony'
p68
sg6
S'789'
p69
sg8
g41
sg10
S'off'
p70
sg12
g65
sg13
g14
((lp71
S'Marek'
p72
aS'Mateusz'
p73
aS'Monika'
p74
atp75
Rp76
sg18
g41
sbsS'Monika'
p77
(i__main__
User
p78
(dp79
g4
S'Niepodlaczony'
p80
sg6
S'123'
p81
sg8
S'Kupilam nowe buty :D'
p82
sg10
S'off'
p83
sg12
g77
sg13
g14
((lp84
tp85
Rp86
sg18
g41
sbs.